target datalayout = "e-m:e-p270:32:32-p271:32:32-p272:64:64-i64:64-i128:128-f80:128-n8:16:32:64-S128"
target triple = "x86_64-pc-linux-gnu"

%"class.std::__1::basic_string" = type { %"class.std::__1::__compressed_pair" }
%"class.std::__1::__compressed_pair" = type { %"struct.std::__1::__compressed_pair_elem" }
%"struct.std::__1::__compressed_pair_elem" = type { %"struct.std::__1::basic_string<char>::__rep" }
%"struct.std::__1::basic_string<char>::__rep" = type { %union.anon }
%union.anon = type { %"struct.std::__1::basic_string<char>::__long" }
%"struct.std::__1::basic_string<char>::__long" = type { %struct.anon.0, i64, ptr }
%struct.anon.0 = type { i64 }

@__const._ZN7mitsuba4util10mem_stringEmb.orders = private unnamed_addr constant [7 x ptr] [ptr @.str.19, ptr @.str.20, ptr @.str.21, ptr @.str.22, ptr @.str.23, ptr @.str.24, ptr @.str.25], align 16
@.str.26 = private unnamed_addr constant [8 x i8] c"%.5g %s\00", align 1
@.str.27 = private unnamed_addr constant [8 x i8] c"%.3g %s\00", align 1

; Function Attrs: mustprogress uwtable
define void @_ZN7mitsuba4util10mem_stringEmb(ptr dead_on_unwind noalias writable sret(%"class.std::__1::basic_string") align 8 %0, i64 noundef %1, i1 noundef zeroext %2) #0 {
  %4 = alloca ptr, align 8
  %5 = alloca i64, align 8
  %6 = alloca i8, align 1
  %7 = alloca [7 x ptr], align 16
  %8 = alloca float, align 4
  %9 = alloca i32, align 4
  store ptr %0, ptr %4, align 8
  store i64 %1, ptr %5, align 8
  %10 = zext i1 %2 to i8
  store i8 %10, ptr %6, align 1
  call void @llvm.memcpy.p0.p0.i64(ptr align 16 %7, ptr align 16 @__const._ZN7mitsuba4util10mem_stringEmb.orders, i64 56, i1 false)
  %11 = load i64, ptr %5, align 8
  %12 = uitofp i64 %11 to float
  store float %12, ptr %8, align 4
  store i32 0, ptr %9, align 4
  store i32 0, ptr %9, align 4
  br label %13

13:                                               ; preds = %24, %3
  %14 = load i32, ptr %9, align 4
  %15 = icmp slt i32 %14, 6
  br i1 %15, label %16, label %19

16:                                               ; preds = %13
  %17 = load float, ptr %8, align 4
  %18 = fcmp contract ogt float %17, 1.024000e+03
  br label %19

19:                                               ; preds = %16, %13
  %20 = phi i1 [ false, %13 ], [ %18, %16 ]
  br i1 %20, label %21, label %27

21:                                               ; preds = %19
  %22 = load float, ptr %8, align 4
  %23 = fdiv contract float %22, 1.024000e+03
  store float %23, ptr %8, align 4
  br label %24

24:                                               ; preds = %21
  %25 = load i32, ptr %9, align 4
  %26 = add nsw i32 %25, 1
  store i32 %26, ptr %9, align 4
  br label %13, !llvm.loop !8

27:                                               ; preds = %19
  %28 = load i8, ptr %6, align 1
  %29 = trunc i8 %28 to i1
  br i1 %29, label %30, label %31

30:                                               ; preds = %27
  br label %32

31:                                               ; preds = %27
  br label %32

32:                                               ; preds = %31, %30
  %33 = phi ptr [ @.str.26, %30 ], [ @.str.27, %31 ]
  %34 = getelementptr inbounds [8 x i8], ptr %33, i64 0, i64 0
  %35 = load i32, ptr %9, align 4
  %36 = sext i32 %35 to i64
  %37 = getelementptr inbounds [7 x ptr], ptr %7, i64 0, i64 %36
  call void @_ZN10tinyformat6formatIJfPKcEEENSt3__112basic_stringIcNS3_11char_traitsIcEENS3_9allocatorIcEEEES2_DpRKT_(ptr dead_on_unwind writable sret(%"class.std::__1::basic_string") align 8 %0, ptr noundef %34, ptr noundef nonnull align 4 dereferenceable(4) %8, ptr noundef nonnull align 8 dereferenceable(8) %37)
  ret void
}