; Function Attrs: mustprogress uwtable
define void @_ZN7mitsuba4util10mem_stringEmb(ptr dead_on_unwind noalias writable sret(%"class.std::__1::basic_string") align 8 %0, i64 noundef %1, i1 noundef zeroext %2) local_unnamed_addr #0 {
  %4 = alloca [7 x ptr], align 16
  %5 = alloca float, align 4
  call void @llvm.memcpy.p0.p0.i64(ptr noundef nonnull align 16 dereferenceable(56) %4, ptr noundef nonnull align 16 dereferenceable(56) @__const._ZN7mitsuba4util10mem_stringEmb.orders, i64 56, i1 false)
  %6 = uitofp i64 %1 to float
  %7 = icmp ugt i64 %1, 1024
  br i1 %7, label %.lr.ph, label %._crit_edge

.lr.ph:                                           ; preds = %3, %.lr.ph
  %.06 = phi i32 [ %10, %.lr.ph ], [ 0, %3 ]
  %8 = phi float [ %9, %.lr.ph ], [ %6, %3 ]
  %9 = fmul contract float %8, 0x3F50000000000000
  %10 = add nuw nsw i32 %.06, 1
  %11 = icmp ult i32 %.06, 5
  %12 = fcmp contract ogt float %9, 1.024000e+03
  %13 = select i1 %11, i1 %12, i1 false
  br i1 %13, label %.lr.ph, label %._crit_edge.loopexit, !llvm.loop !17

._crit_edge.loopexit:                             ; preds = %.lr.ph
  %14 = zext nneg i32 %10 to i64
  br label %._crit_edge

._crit_edge:                                      ; preds = %._crit_edge.loopexit, %3
  %.lcssa = phi float [ %6, %3 ], [ %9, %._crit_edge.loopexit ]
  %.0.lcssa = phi i64 [ 0, %3 ], [ %14, %._crit_edge.loopexit ]
  store float %.lcssa, ptr %5, align 4
  %.str.26..str.27 = select i1 %2, ptr @.str.26, ptr @.str.27
  %15 = getelementptr inbounds [7 x ptr], ptr %4, i64 0, i64 %.0.lcssa
  call void @_ZN10tinyformat6formatIJfPKcEEENSt3__112basic_stringIcNS3_11char_traitsIcEENS3_9allocatorIcEEEES2_DpRKT_(ptr dead_on_unwind writable sret(%"class.std::__1::basic_string") align 8 %0, ptr noundef nonnull %.str.26..str.27, ptr noundef nonnull align 4 dereferenceable(4) %5, ptr noundef nonnull align 8 dereferenceable(8) %15)
  ret void
}